target datalayout = "e-m:e-p270:32:32-p271:32:32-p272:64:64-i64:64-f80:128-n8:16:32:64-S128"
target triple = "x86_64-pc-linux-gnu"

@.str = private unnamed_addr constant [4 x i8] c"%d\0A\00", align 1
@.str.1 = private unnamed_addr constant [3 x i8] c"NO\00", align 1
@.str.2 = private unnamed_addr constant [4 x i8] c"%s\0A\00", align 1

; Function Attrs: noinline nounwind uwtable
define dso_local void @main() #0 {
  %1 = alloca i32, align 4
  %2 = alloca i32, align 4
  %3 = alloca i32, align 4
  %4 = alloca i32, align 4
  %5 = alloca i32, align 4
  %6 = alloca i32, align 4
  %7 = alloca [501 x i8], align 16
  %8 = alloca [500 x [6 x i8]], align 16
  %9 = alloca [501 x i32], align 16
  store i32 0, i32* %3, align 4
  store i32 0, i32* %4, align 4
  store i32 0, i32* %6, align 4
  store i32 0, i32* %2, align 4
  br label %10

10:                                               ; preds = %28, %0
  %11 = load i32, i32* %2, align 4
  %12 = icmp slt i32 %11, 500
  br i1 %12, label %13, label %31

13:                                               ; preds = %10
  store i32 0, i32* %3, align 4
  br label %14

14:                                               ; preds = %24, %13
  %15 = load i32, i32* %3, align 4
  %16 = icmp slt i32 %15, 6
  br i1 %16, label %17, label %27

17:                                               ; preds = %14
  %18 = load i32, i32* %2, align 4
  %19 = sext i32 %18 to i64
  %20 = getelementptr inbounds [500 x [6 x i8]], [500 x [6 x i8]]* %8, i64 0, i64 %19
  %21 = load i32, i32* %3, align 4
  %22 = sext i32 %21 to i64
  %23 = getelementptr inbounds [6 x i8], [6 x i8]* %20, i64 0, i64 %22
  store i8 0, i8* %23, align 1
  br label %24

24:                                               ; preds = %17
  %25 = load i32, i32* %3, align 4
  %26 = add nsw i32 %25, 1
  store i32 %26, i32* %3, align 4
  br label %14

27:                                               ; preds = %14
  br label %28

28:                                               ; preds = %27
  %29 = load i32, i32* %2, align 4
  %30 = add nsw i32 %29, 1
  store i32 %30, i32* %2, align 4
  br label %10

31:                                               ; preds = %10
  %32 = call i32 (i8*, ...) @__isoc99_scanf(i8* getelementptr inbounds ([4 x i8], [4 x i8]* @.str, i64 0, i64 0), i32* %1)
  %33 = getelementptr inbounds [501 x i8], [501 x i8]* %7, i64 0, i64 0
  %34 = call i32 (i8*, ...) bitcast (i32 (...)* @gets to i32 (i8*, ...)*)(i8* %33)
  %35 = getelementptr inbounds [501 x i8], [501 x i8]* %7, i64 0, i64 0
  %36 = call i64 @strlen(i8* %35) #4
  %37 = trunc i64 %36 to i32
  store i32 %37, i32* %5, align 4
  store i32 0, i32* %3, align 4
  store i32 0, i32* %4, align 4
  store i32 0, i32* %2, align 4
  br label %38

38:                                               ; preds = %66, %31
  %39 = load i32, i32* %2, align 4
  %40 = load i32, i32* %5, align 4
  %41 = icmp slt i32 %39, %40
  br i1 %41, label %42, label %69

42:                                               ; preds = %38
  %43 = load i32, i32* %2, align 4
  %44 = sext i32 %43 to i64
  %45 = getelementptr inbounds [501 x i8], [501 x i8]* %7, i64 0, i64 %44
  %46 = load i8, i8* %45, align 1
  %47 = load i32, i32* %4, align 4
  %48 = sext i32 %47 to i64
  %49 = getelementptr inbounds [500 x [6 x i8]], [500 x [6 x i8]]* %8, i64 0, i64 %48
  %50 = load i32, i32* %3, align 4
  %51 = sext i32 %50 to i64
  %52 = getelementptr inbounds [6 x i8], [6 x i8]* %49, i64 0, i64 %51
  store i8 %46, i8* %52, align 1
  %53 = load i32, i32* %3, align 4
  %54 = add nsw i32 %53, 1
  store i32 %54, i32* %3, align 4
  %55 = load i32, i32* %3, align 4
  %56 = load i32, i32* %1, align 4
  %57 = icmp eq i32 %55, %56
  br i1 %57, label %58, label %65

58:                                               ; preds = %42
  %59 = load i32, i32* %4, align 4
  %60 = add nsw i32 %59, 1
  store i32 %60, i32* %4, align 4
  %61 = load i32, i32* %2, align 4
  %62 = load i32, i32* %1, align 4
  %63 = sub nsw i32 %61, %62
  %64 = add nsw i32 %63, 1
  store i32 %64, i32* %2, align 4
  store i32 0, i32* %3, align 4
  br label %65

65:                                               ; preds = %58, %42
  br label %66

66:                                               ; preds = %65
  %67 = load i32, i32* %2, align 4
  %68 = add nsw i32 %67, 1
  store i32 %68, i32* %2, align 4
  br label %38

69:                                               ; preds = %38
  %70 = bitcast [501 x i32]* %9 to i8*
  call void @llvm.memset.p0i8.i64(i8* align 16 %70, i8 0, i64 2004, i1 false)
  store i32 0, i32* %2, align 4
  br label %71

71:                                               ; preds = %117, %69
  %72 = load i32, i32* %2, align 4
  %73 = load i32, i32* %4, align 4
  %74 = icmp slt i32 %72, %73
  br i1 %74, label %75, label %120

75:                                               ; preds = %71
  %76 = load i32, i32* %2, align 4
  %77 = sext i32 %76 to i64
  %78 = getelementptr inbounds [500 x [6 x i8]], [500 x [6 x i8]]* %8, i64 0, i64 %77
  %79 = getelementptr inbounds [6 x i8], [6 x i8]* %78, i64 0, i64 0
  %80 = load i8, i8* %79, align 2
  %81 = sext i8 %80 to i32
  %82 = icmp ne i32 %81, 0
  br i1 %82, label %83, label %116

83:                                               ; preds = %75
  %84 = load i32, i32* %2, align 4
  %85 = add nsw i32 %84, 1
  store i32 %85, i32* %3, align 4
  br label %86

86:                                               ; preds = %112, %83
  %87 = load i32, i32* %3, align 4
  %88 = load i32, i32* %4, align 4
  %89 = icmp slt i32 %87, %88
  br i1 %89, label %90, label %115

90:                                               ; preds = %86
  %91 = load i32, i32* %2, align 4
  %92 = sext i32 %91 to i64
  %93 = getelementptr inbounds [500 x [6 x i8]], [500 x [6 x i8]]* %8, i64 0, i64 %92
  %94 = getelementptr inbounds [6 x i8], [6 x i8]* %93, i64 0, i64 0
  %95 = load i32, i32* %3, align 4
  %96 = sext i32 %95 to i64
  %97 = getelementptr inbounds [500 x [6 x i8]], [500 x [6 x i8]]* %8, i64 0, i64 %96
  %98 = getelementptr inbounds [6 x i8], [6 x i8]* %97, i64 0, i64 0
  %99 = call i32 @strcmp(i8* %94, i8* %98) #4
  %100 = icmp eq i32 %99, 0
  br i1 %100, label %101, label %111

101:                                              ; preds = %90
  %102 = load i32, i32* %2, align 4
  %103 = sext i32 %102 to i64
  %104 = getelementptr inbounds [501 x i32], [501 x i32]* %9, i64 0, i64 %103
  %105 = load i32, i32* %104, align 4
  %106 = add nsw i32 %105, 1
  store i32 %106, i32* %104, align 4
  %107 = load i32, i32* %3, align 4
  %108 = sext i32 %107 to i64
  %109 = getelementptr inbounds [500 x [6 x i8]], [500 x [6 x i8]]* %8, i64 0, i64 %108
  %110 = getelementptr inbounds [6 x i8], [6 x i8]* %109, i64 0, i64 0
  store i8 0, i8* %110, align 2
  br label %111

111:                                              ; preds = %101, %90
  br label %112

112:                                              ; preds = %111
  %113 = load i32, i32* %3, align 4
  %114 = add nsw i32 %113, 1
  store i32 %114, i32* %3, align 4
  br label %86

115:                                              ; preds = %86
  br label %116

116:                                              ; preds = %115, %75
  br label %117

117:                                              ; preds = %116
  %118 = load i32, i32* %2, align 4
  %119 = add nsw i32 %118, 1
  store i32 %119, i32* %2, align 4
  br label %71

120:                                              ; preds = %71
  store i32 0, i32* %2, align 4
  br label %121

121:                                              ; preds = %133, %120
  %122 = load i32, i32* %2, align 4
  %123 = load i32, i32* %4, align 4
  %124 = icmp slt i32 %122, %123
  br i1 %124, label %125, label %136

125:                                              ; preds = %121
  %126 = load i32, i32* %2, align 4
  %127 = sext i32 %126 to i64
  %128 = getelementptr inbounds [501 x i32], [501 x i32]* %9, i64 0, i64 %127
  %129 = load i32, i32* %128, align 4
  %130 = icmp ne i32 %129, 0
  br i1 %130, label %131, label %132

131:                                              ; preds = %125
  br label %136

132:                                              ; preds = %125
  br label %133

133:                                              ; preds = %132
  %134 = load i32, i32* %2, align 4
  %135 = add nsw i32 %134, 1
  store i32 %135, i32* %2, align 4
  br label %121

136:                                              ; preds = %131, %121
  %137 = load i32, i32* %2, align 4
  %138 = load i32, i32* %4, align 4
  %139 = icmp eq i32 %137, %138
  br i1 %139, label %140, label %142

140:                                              ; preds = %136
  %141 = call i32 (i8*, ...) @printf(i8* getelementptr inbounds ([3 x i8], [3 x i8]* @.str.1, i64 0, i64 0))
  br label %233

142:                                              ; preds = %136
  store i32 0, i32* %2, align 4
  br label %143

143:                                              ; preds = %188, %142
  %144 = load i32, i32* %2, align 4
  %145 = load i32, i32* %4, align 4
  %146 = icmp slt i32 %144, %145
  br i1 %146, label %147, label %191

147:                                              ; preds = %143
  store i32 0, i32* %3, align 4
  br label %148

148:                                              ; preds = %164, %147
  %149 = load i32, i32* %3, align 4
  %150 = load i32, i32* %4, align 4
  %151 = icmp slt i32 %149, %150
  br i1 %151, label %152, label %167

152:                                              ; preds = %148
  %153 = load i32, i32* %2, align 4
  %154 = sext i32 %153 to i64
  %155 = getelementptr inbounds [501 x i32], [501 x i32]* %9, i64 0, i64 %154
  %156 = load i32, i32* %155, align 4
  %157 = load i32, i32* %3, align 4
  %158 = sext i32 %157 to i64
  %159 = getelementptr inbounds [501 x i32], [501 x i32]* %9, i64 0, i64 %158
  %160 = load i32, i32* %159, align 4
  %161 = icmp slt i32 %156, %160
  br i1 %161, label %162, label %163

162:                                              ; preds = %152
  br label %167

163:                                              ; preds = %152
  br label %164

164:                                              ; preds = %163
  %165 = load i32, i32* %3, align 4
  %166 = add nsw i32 %165, 1
  store i32 %166, i32* %3, align 4
  br label %148

167:                                              ; preds = %162, %148
  %168 = load i32, i32* %3, align 4
  %169 = load i32, i32* %4, align 4
  %170 = icmp eq i32 %168, %169
  br i1 %170, label %171, label %183

171:                                              ; preds = %167
  %172 = load i32, i32* %2, align 4
  %173 = sext i32 %172 to i64
  %174 = getelementptr inbounds [501 x i32], [501 x i32]* %9, i64 0, i64 %173
  %175 = load i32, i32* %174, align 4
  %176 = add nsw i32 %175, 1
  %177 = call i32 (i8*, ...) @printf(i8* getelementptr inbounds ([4 x i8], [4 x i8]* @.str, i64 0, i64 0), i32 %176)
  %178 = load i32, i32* %2, align 4
  %179 = sext i32 %178 to i64
  %180 = getelementptr inbounds [500 x [6 x i8]], [500 x [6 x i8]]* %8, i64 0, i64 %179
  %181 = getelementptr inbounds [6 x i8], [6 x i8]* %180, i64 0, i64 0
  %182 = call i32 (i8*, ...) @printf(i8* getelementptr inbounds ([4 x i8], [4 x i8]* @.str.2, i64 0, i64 0), i8* %181)
  store i32 1, i32* %6, align 4
  br label %183

183:                                              ; preds = %171, %167
  %184 = load i32, i32* %6, align 4
  %185 = icmp eq i32 %184, 1
  br i1 %185, label %186, label %187

186:                                              ; preds = %183
  br label %191

187:                                              ; preds = %183
  br label %188

188:                                              ; preds = %187
  %189 = load i32, i32* %2, align 4
  %190 = add nsw i32 %189, 1
  store i32 %190, i32* %2, align 4
  br label %143

191:                                              ; preds = %186, %143
  %192 = load i32, i32* %2, align 4
  %193 = add nsw i32 %192, 1
  store i32 %193, i32* %2, align 4
  br label %194

194:                                              ; preds = %229, %191
  %195 = load i32, i32* %2, align 4
  %196 = load i32, i32* %4, align 4
  %197 = icmp slt i32 %195, %196
  br i1 %197, label %198, label %232

198:                                              ; preds = %194
  store i32 0, i32* %3, align 4
  br label %199

199:                                              ; preds = %215, %198
  %200 = load i32, i32* %3, align 4
  %201 = load i32, i32* %4, align 4
  %202 = icmp slt i32 %200, %201
  br i1 %202, label %203, label %218

203:                                              ; preds = %199
  %204 = load i32, i32* %2, align 4
  %205 = sext i32 %204 to i64
  %206 = getelementptr inbounds [501 x i32], [501 x i32]* %9, i64 0, i64 %205
  %207 = load i32, i32* %206, align 4
  %208 = load i32, i32* %3, align 4
  %209 = sext i32 %208 to i64
  %210 = getelementptr inbounds [501 x i32], [501 x i32]* %9, i64 0, i64 %209
  %211 = load i32, i32* %210, align 4
  %212 = icmp slt i32 %207, %211
  br i1 %212, label %213, label %214

213:                                              ; preds = %203
  br label %218

214:                                              ; preds = %203
  br label %215

215:                                              ; preds = %214
  %216 = load i32, i32* %3, align 4
  %217 = add nsw i32 %216, 1
  store i32 %217, i32* %3, align 4
  br label %199

218:                                              ; preds = %213, %199
  %219 = load i32, i32* %3, align 4
  %220 = load i32, i32* %4, align 4
  %221 = icmp eq i32 %219, %220
  br i1 %221, label %222, label %228

222:                                              ; preds = %218
  %223 = load i32, i32* %2, align 4
  %224 = sext i32 %223 to i64
  %225 = getelementptr inbounds [500 x [6 x i8]], [500 x [6 x i8]]* %8, i64 0, i64 %224
  %226 = getelementptr inbounds [6 x i8], [6 x i8]* %225, i64 0, i64 0
  %227 = call i32 (i8*, ...) @printf(i8* getelementptr inbounds ([4 x i8], [4 x i8]* @.str.2, i64 0, i64 0), i8* %226)
  br label %228

228:                                              ; preds = %222, %218
  br label %229

229:                                              ; preds = %228
  %230 = load i32, i32* %2, align 4
  %231 = add nsw i32 %230, 1
  store i32 %231, i32* %2, align 4
  br label %194

232:                                              ; preds = %194
  br label %233

233:                                              ; preds = %232, %140
  ret void
}